target datalayout = "e-m:e-p270:32:32-p271:32:32-p272:64:64-i64:64-i128:128-f80:128-n8:16:32:64-S128"
target triple = "x86_64-pc-linux-gnu"

@.str.410 = private unnamed_addr constant [15 x i8] c"%d.%d.%d.%d.%d\00", align 1

; Function Attrs: null_pointer_is_valid sspstrong uwtable
define internal void @vsnum_to_vstext_basecustom(ptr noundef %0, i32 noundef %1) #0 {
  %3 = alloca ptr, align 8
  %4 = alloca i32, align 4
  store ptr %0, ptr %3, align 8
  store i32 %1, ptr %4, align 4
  %5 = load ptr, ptr %3, align 8
  %6 = load ptr, ptr %3, align 8
  %7 = call i64 @llvm.objectsize.i64.p0(ptr %6, i1 false, i1 true, i1 true)
  %8 = load i32, ptr %4, align 4
  %9 = lshr i32 %8, 24
  %10 = load i32, ptr %4, align 4
  %11 = lshr i32 %10, 20
  %12 = and i32 %11, 15
  %13 = load i32, ptr %4, align 4
  %14 = lshr i32 %13, 12
  %15 = and i32 %14, 15
  %16 = load i32, ptr %4, align 4
  %17 = lshr i32 %16, 8
  %18 = and i32 %17, 15
  %19 = load i32, ptr %4, align 4
  %20 = and i32 %19, 255
  %21 = call i32 (ptr, i64, i32, i64, ptr, ...) @__snprintf_chk(ptr noundef %5, i64 noundef 240, i32 noundef 2, i64 noundef %7, ptr noundef @.str.410, i32 noundef %9, i32 noundef %12, i32 noundef %15, i32 noundef %18, i32 noundef %20)
  ret void
}