; Function Attrs: nofree null_pointer_is_valid sspstrong uwtable
define internal void @vsnum_to_vstext_basecustom(ptr noundef %0, i32 noundef %1) #1 {
  %3 = lshr i32 %1, 24
  %4 = lshr i32 %1, 20
  %5 = and i32 %4, 15
  %6 = lshr i32 %1, 12
  %7 = and i32 %6, 15
  %8 = lshr i32 %1, 8
  %9 = and i32 %8, 15
  %10 = and i32 %1, 255
  %11 = tail call i32 (ptr, i64, i32, i64, ptr, ...) @__snprintf_chk(ptr noundef %0, i64 noundef 240, i32 noundef 2, i64 noundef -1, ptr noundef nonnull @.str.410, i32 noundef %3, i32 noundef %5, i32 noundef %7, i32 noundef %9, i32 noundef %10)
  ret void
}